; Function Attrs: mustprogress uwtable
define noalias noundef nonnull ptr @_ZN7rocksdb19WriteBatchWithIndex11NewIteratorEv(ptr noundef nonnull readonly align 8 captures(none) dereferenceable(16) %0) local_unnamed_addr #4 align 2 personality ptr @__gxx_personality_v0 {
  %2 = tail call noalias noundef nonnull dereferenceable(72) ptr @_Znwm(i64 noundef 72) #27
  %3 = getelementptr inbounds nuw i8, ptr %0, i64 8
  %4 = load ptr, ptr %3, align 8, !tbaa !202
  %5 = getelementptr inbounds nuw i8, ptr %4, i64 2496
  %6 = getelementptr inbounds nuw i8, ptr %4, i64 160
  store ptr getelementptr inbounds nuw inrange(-16, 104) (i8, ptr @_ZTVN7rocksdb16WBWIIteratorImplE, i64 16), ptr %2, align 8, !tbaa !88
  %7 = getelementptr inbounds nuw i8, ptr %2, i64 8
  store i32 0, ptr %7, align 8, !tbaa !90
  %8 = getelementptr inbounds nuw i8, ptr %2, i64 16
  store ptr %5, ptr %8, align 8, !tbaa !95
  %9 = getelementptr inbounds nuw i8, ptr %2, i64 24
  store ptr null, ptr %9, align 8, !tbaa !96
  %10 = getelementptr inbounds nuw i8, ptr %2, i64 32
  store ptr %4, ptr %10, align 8, !tbaa !97
  %11 = getelementptr inbounds nuw i8, ptr %2, i64 40
  store ptr %6, ptr %11, align 8, !tbaa !98
  %12 = getelementptr inbounds nuw i8, ptr %2, i64 48
  tail call void @llvm.memset.p0.i64(ptr noundef nonnull align 8 dereferenceable(17) %12, i8 0, i64 17, i1 false)
  ret ptr %2
}